; ModuleID = '40/2628.c'
source_filename = "40/2628.c"
target datalayout = "e-m:e-p270:32:32-p271:32:32-p272:64:64-i64:64-f80:128-n8:16:32:64-S128"
target triple = "x86_64-pc-linux-gnu"

@.str = private unnamed_addr constant [16 x i8] c"%lf%lf%lf%lf%lf\00", align 1
@.str.1 = private unnamed_addr constant [7 x i8] c"%.4lf\0A\00", align 1
@.str.2 = private unnamed_addr constant [15 x i8] c"Invalid input\0A\00", align 1

; Function Attrs: noinline nounwind uwtable
define dso_local i32 @main() #0 {
  %1 = alloca i32, align 4
  %2 = alloca double, align 8
  %3 = alloca double, align 8
  %4 = alloca double, align 8
  %5 = alloca double, align 8
  %6 = alloca double, align 8
  %7 = alloca double, align 8
  %8 = alloca double, align 8
  store i32 0, i32* %1, align 4
  store double 0.000000e+00, double* %7, align 8
  %9 = load double, double* %8, align 8
  %10 = fcmp ogt double %9, 0.000000e+00
  br i1 %10, label %11, label %14

11:                                               ; preds = %0
  %12 = load double, double* %8, align 8
  %13 = fcmp olt double %12, 3.600000e+02
  br label %14

14:                                               ; preds = %11, %0
  %15 = phi i1 [ false, %0 ], [ %13, %11 ]
  %16 = zext i1 %15 to i32
  %17 = call i32 (i8*, ...) @__isoc99_scanf(i8* getelementptr inbounds ([16 x i8], [16 x i8]* @.str, i64 0, i64 0), double* %2, double* %3, double* %4, double* %5, double* %8)
  %18 = load double, double* %2, align 8
  %19 = load double, double* %3, align 8
  %20 = fadd double %18, %19
  %21 = load double, double* %4, align 8
  %22 = fadd double %20, %21
  %23 = load double, double* %5, align 8
  %24 = fadd double %22, %23
  %25 = fdiv double %24, 2.000000e+00
  store double %25, double* %6, align 8
  %26 = load double, double* %6, align 8
  %27 = load double, double* %2, align 8
  %28 = fsub double %26, %27
  %29 = load double, double* %6, align 8
  %30 = load double, double* %3, align 8
  %31 = fsub double %29, %30
  %32 = fmul double %28, %31
  %33 = load double, double* %6, align 8
  %34 = load double, double* %4, align 8
  %35 = fsub double %33, %34
  %36 = fmul double %32, %35
  %37 = load double, double* %6, align 8
  %38 = load double, double* %5, align 8
  %39 = fsub double %37, %38
  %40 = fmul double %36, %39
  %41 = load double, double* %2, align 8
  %42 = load double, double* %3, align 8
  %43 = fmul double %41, %42
  %44 = load double, double* %4, align 8
  %45 = fmul double %43, %44
  %46 = load double, double* %5, align 8
  %47 = fmul double %45, %46
  %48 = load double, double* %8, align 8
  %49 = fmul double %48, 1.000000e+02
  %50 = fdiv double %49, 3.600000e+02
  %51 = call double @cos(double %50) #3
  %52 = fmul double %47, %51
  %53 = load double, double* %8, align 8
  %54 = fmul double %53, 1.000000e+02
  %55 = fdiv double %54, 3.600000e+02
  %56 = call double @cos(double %55) #3
  %57 = fmul double %52, %56
  %58 = fsub double %40, %57
  %59 = call double @sqrt(double %58) #3
  store double %59, double* %7, align 8
  %60 = load double, double* %6, align 8
  %61 = load double, double* %2, align 8
  %62 = fsub double %60, %61
  %63 = load double, double* %6, align 8
  %64 = load double, double* %3, align 8
  %65 = fsub double %63, %64
  %66 = fmul double %62, %65
  %67 = load double, double* %6, align 8
  %68 = load double, double* %4, align 8
  %69 = fsub double %67, %68
  %70 = fmul double %66, %69
  %71 = load double, double* %6, align 8
  %72 = load double, double* %5, align 8
  %73 = fsub double %71, %72
  %74 = fmul double %70, %73
  %75 = load double, double* %2, align 8
  %76 = load double, double* %3, align 8
  %77 = fmul double %75, %76
  %78 = load double, double* %4, align 8
  %79 = fmul double %77, %78
  %80 = load double, double* %5, align 8
  %81 = fmul double %79, %80
  %82 = load double, double* %8, align 8
  %83 = fmul double %82, 1.000000e+02
  %84 = fdiv double %83, 1.800000e+02
  %85 = call double @cos(double %84) #3
  %86 = fmul double %81, %85
  %87 = load double, double* %8, align 8
  %88 = fmul double %87, 1.000000e+02
  %89 = fdiv double %88, 1.800000e+02
  %90 = call double @cos(double %89) #3
  %91 = fmul double %86, %90
  %92 = fsub double %74, %91
  %93 = fcmp ogt double %92, 0.000000e+00
  br i1 %93, label %94, label %97

94:                                               ; preds = %14
  %95 = load double, double* %7, align 8
  %96 = call i32 (i8*, ...) @printf(i8* getelementptr inbounds ([7 x i8], [7 x i8]* @.str.1, i64 0, i64 0), double %95)
  br label %99

97:                                               ; preds = %14
  %98 = call i32 (i8*, ...) @printf(i8* getelementptr inbounds ([15 x i8], [15 x i8]* @.str.2, i64 0, i64 0))
  br label %99

99:                                               ; preds = %97, %94
  ret i32 0
}

declare dso_local i32 @__isoc99_scanf(i8*, ...) #1

; Function Attrs: nounwind
declare dso_local double @sqrt(double) #2

; Function Attrs: nounwind
declare dso_local double @cos(double) #2

declare dso_local i32 @printf(i8*, ...) #1


!llvm.module.flags = !{!0}
!llvm.ident = !{!1}

!0 = !{i32 1, !"wchar_size", i32 4}
!1 = !{!"clang version 10.0.0-4ubuntu1 "}
